(dp1
S'output'
p2
S'missing "pass" in view'
p3
sS'layer'
p4
S'ParserContainer'
p5
sS'code'
p6
S'response.write(\'<!DOCTYPE html>\\r\\n<html lang="en">\\r\\n\\t<head>\\r\\n\\t\\t<meta charset="utf-8">\\r\\n\\t\\t<meta http-equiv="X-UA-Compatible" content="IE=edge">\\r\\n\\t\\t<meta name="viewpoint" content="width=device-width, initial-scale=1">\\r\\n\\t\\t<title>Read_Notes</title>\\r\\n\\t\\t<link rel="stylesheet" type="text/css" href="\', escape=False)\nresponse.write(URL(\'static\',\'css/bootstrap.css\'))\nresponse.write(\'"/>\\r\\n\\t\\t<!--[if lt IE 9]>-->\\r\\n\\t\\t<script src="https://oss.maxcdn.com/libs/html5shiv/3.7.0/html5shiv.js"></script>\\r\\n\\t\\t<script src="https://oss.maxcdn.com/libs/respond.js/1.4.2/respond.min.js"></script>\\r\\n\\t\\t<!--[endif]-->\\r\\n\\t</head>\\r\\n\\t<body>\\r\\n\\t  \\r\\n\\t  <!--Header-->\\r\\n\\t  <div class="container">\\r\\n\\t    <div class="row">\\r\\n\\t      <div class="col-md-12 text-center page-header">\\r\\n\\t        <h1>Welcome to Codetrain Notepad</h1>\\r\\n\\t        <h5>Save your Note, Read it on the go</h5>\\r\\n\\t      </div>\\r\\n\\t    </div>\\r\\n\\t  </div>\\r\\n\\r\\n\\r\\n\\t  <!--Form-->\\r\\n\\t  \\t<div class="container">\\r\\n\\t    \\t<div class="row">\\r\\n\\r\\n\\t\\t      \\t<div class="col-md-1">\\r\\n\\t\\t      \\t</div>\\r\\n\\r\\n\\t\\t\\t    <div class="col-md-10">\\r\\n\\t\\t\\t        <form class="form" action="\', escape=False)\nresponse.write(URL(\'update\'))\nresponse.write(\'" method="post"> \\r\\n\\t\\t\\t           <div class="form-group">\\r\\n\\t\\t\\t                <div class="row">\\r\\n\\t\\t\\t                    <div class="col-md-12">\\r\\n\\t\\t\\t                    \\t<div class="content">\\r\\n\\r\\n\\t\\t\\t                    \\t\\t\', escape=False)\nif readnotes:\n    response.write(\'\\r\\n\\t\\t\\t\\t\\t\\t\\t\\t\\t\\t\', escape=False)\n    for notes in readnotes:\n        response.write(\'\\r\\n\\t\\t\\t\\t\\t\\t\\t\\t\\t\\t\\t<p><strong>\', escape=False)\n        response.write(notes.id)\n        response.write(\'. <a href="#">\', escape=False)\n        response.write(notes.db_title)\n        response.write(\'</a></strong> <br> <a href="#" style="color: green">https//www.\', escape=False)\n        response.write(notes.db_title)\n        response.write(\'.com</a> </p>\\r\\n\\r\\n\\r\\n\\t\\t\\t\\t\\t\\t\\t\\t\\t\\t<div class="read-more">\\r\\n\\t\\t\\t\\t\\t\\t\\t\\t\\t\\t\\t\\tIt shall blossom abundantly - Hebrew, \\xe2\\x80\\x98Blossoming it shall blossom\\xe2\\x80\\x99 - a common mode of expression in Hebrew, denoting certainty, abundance, fullness - similar to the expression Gen_2:17, \\xe2\\x80\\x98Dying thou shalt die,\\xe2\\x80\\x99 that is, thou shalt surely die. The sense here is, it shall blossom in abundance. And rejoice even with joy - Strong figurative language, denoting the greatness of the blessings; as great as if in the waste wilderness there should be heard the voice of joy and rejoicing. The Septuagint renders this: \\xe2\\x80\\x98The deserts of Jordan also bloom and rejoice;\\xe2\\x80\\x99 and Jerome applies this to the preaching of John in \\r\\n\\t\\t\\t\\t\\t\\t\\t\\t\\t\\t\\t\\tthe wilderness adjacent to Jordan. The Septuagint evidently read \\xd7\\x99\\xd7\\xa8\\xd7\\x93\\xd7\\x9f yarede\\xcc\\x84n instead of the Hebrew \\xd7\\x99\\xd7\\xa8\\xd7\\xa0\\xd7\\x9f yeranne\\xcc\\x84n. Lowth has followed this, and rendered it, \\xe2\\x80\\x98The well-watered plain of Jordan shall rejoice,\\xe2\\x80\\x99 but without any authority from Hebrew manuscripts for the change. Doing some new changes. this is a test\\r\\n\\t\\t\\t\\t\\t\\t\\t\\t\\t\\t</div>\\r\\n\\t\\t\\t\\t\\t\\t\\t\\t\\t</div>\\r\\n\\t\\t\\t\\t\\t\\t\\t\\t\\t<!--\', escape=False)\n        if readnotes:\n            response.write(\'\\r\\n\\t\\t\\t\\t\\t\\t\\t\\t\\t\\t\', escape=False)\n            for notes in readnotes:\n                response.write(\'\\r\\n\\t\\t\\t\\t\\t\\t\\t\\t\\t\\t\\t<p><strong>\', escape=False)\n                response.write(notes.id)\n                response.write(\'. <a href="#">\', escape=False)\n                response.write(notes.db_title)\n                response.write(\'</a></strong> <br> <a href="#" style="color: green">https//www.\', escape=False)\n                response.write(notes.db_title)\n                response.write(\'.com</a> </p>-->\\r\\n\\t\\t\\t\\t\\t\\t\\t\\t\\t\\t\\t\\r\\n\\t\\t\\t\\t\\t\\t\\t\\t\\t\\t\\t<!--<h5>www.myfirstnote.com</h5>-->\\r\\n\\t\\t\\t\\t\\t\\t\\t\\t\\t\\t\\t<!--\', escape=False)\n                s = notes.db_notes\n                response.write(\'-->\\r\\n\\t\\t\\t\\t\\t\\t\\t\\t\\t\\t\\t\\r\\n\\t\\t\\t\\t\\t\\t\\t\\t\\t\\t\\t<!--<p class="well"> \', escape=False)\n                response.write(notes.db_notes)\n                response.write(\'\\r\\n\\t\\t\\t\\t\\t\\t\\t\\t\\t\\t\\t\\t<a href="#">...read more</a> | \\r\\n\\t\\t\\t\\t\\t\\t\\t\\t\\t\\t\\t\\t<a href="\', escape=False)\n                response.write(URL(\'default\',\'edit_notes/\'+ str(notes.id)))\n                response.write(\'">edit</a> | \\r\\n\\t\\t\\t\\t\\t\\t\\t\\t\\t\\t\\t\\t<a href="\', escape=False)\n                response.write(URL(\'default\',\'delete/\'+ str(notes.id)))\n                response.write(\'">delete</a>\\r\\n\\t\\t\\t\\t\\t\\t\\t\\t\\t\\t\\t</p> \\r\\n\\r\\n\\t\\t\\t\\t\\t\\t\\t\\t\\t\\t\\t<hr>\\r\\n\\t\\t\\t\\t\\t\\t\\t\\t\\t\\t\\t\\r\\n\\t\\t\\t\\t\\t\\t\\t\\t\\t\\t\\t\\t\', escape=False)\n                pass\n            response.write(\'\\r\\n\\t\\t\\t\\t\\t\\t\\t\\t\\t\\t\', escape=False)\n        else:\n            response.write(\'\\r\\n\\t\\t\\t\\t\\t\\t\\t\\t\\t\\t\\t<h2>No Notes Found</h2>\\r\\n\\t\\t\\t\\t\\t\\t\\t\\t\\t\\t\\t\\t\', escape=False)\n            pass\n        response.write(\'\\r\\n\\r\\n\\t\\t\\t\\t\\t\\t\\t\\t\\t\\t<nav style="text-align: center;">\\r\\n\\t\\t\\t\\t\\t\\t\\t\\t\\t\\t\\t<div>\\r\\n\\t\\t\\t\\t\\t\\t\\t\\t\\t\\t\\t\\t<a href="Add_Notes.html">Click here to add new notes</a>\\r\\n\\t\\t\\t\\t\\t\\t\\t\\t\\t\\t\\t</div>\\r\\n\\r\\n\\t\\t\\t\\t\\t\\t\\t\\t\\t\\t\\t<ul class="pagination justify-content">\\r\\n\\t\\t\\t\\t\\t\\t\\t\\t\\t\\t\\t\\t<li class="page-item disabled"><a href="#" class="page-link">Previous</a></li>\\r\\n\\t\\t\\t\\t\\t\\t\\t\\t\\t\\t\\t\\t<li class="page-item active"><a href="#" class="page-link">1</a></li>\\r\\n\\t\\t\\t\\t\\t\\t\\t\\t\\t\\t\\t\\t<li class="page-item"><a href="#" class="page-link">2</a></li>\\r\\n\\t\\t\\t\\t\\t\\t\\t\\t\\t\\t\\t\\t<li class="page-item"><a href="#" class="page-link">3</a></li>\\r\\n\\t\\t\\t\\t\\t\\t\\t\\t\\t\\t\\t\\t<li class="page-item"><a href="#" class="page-link">Next</a></li>\\r\\n\\t\\t\\t\\t\\t\\t\\t\\t\\t\\t\\t</ul>\\r\\n\\t\\t\\t\\t\\t\\t\\t\\t\\t\\t</nav>--> \\r\\n\\t\\t\\t                    </div>\\r\\n\\t\\t\\t                 </div>\\r\\n\\t\\t\\t   \\t\\t\\t</div>\\r\\n\\t\\t\\t   \\t\\t</form> \\r\\n\\t\\t\\t  \\t</div>\\r\\n\\r\\n\\t\\t\\t    <div class="col-md-1">  \\r\\n\\t\\t\\t    </div>\\r\\n\\t\\t\\t</div>\\r\\n\\t\\t</div>\\r\\n\\t \\r\\n\\t\\t<script src="\', escape=False)\n        response.write(URL(\'static\',\'js/jquery-3.1.1.min.js\'))\n        response.write(\'"></script>\\r\\n\\t\\t<script src= "\', escape=False)\n        response.write(URL(\'static\',\'js/bootstrap.js\'))\n        response.write(\'"></script>\\r\\n\\t\\t<script>\\r\\n\\t\\t\\t$(document).ready(function(){\\r\\n\\t\\t\\t\\tvar readMoreHtml =$(".read-more").html();\\r\\n\\t\\t\\t\\tvar lessText = readMoreHtml.substr(0,500);\\r\\n\\r\\n\\t\\t\\t\\tif (readMoreHtml.length > 500){\\r\\n\\t\\t\\t\\t\\t$(".read-more").html(lessText).append("<a href=\\\'#\\\' class=\\\'read-more-link\\\'> Show More </a>")\\r\\n\\t\\t\\t\\t}else{\\r\\n\\t\\t\\t\\t\\t$("read-more").html(readMoreHtml);\\r\\n\\t\\t\\t\\t}\\r\\n\\r\\n\\t\\t\\t\\t$("body").on("click", ".read-more-link", function(event){\\r\\n\\t\\t\\t\\t\\tevent.preventDefault();\\r\\n\\t\\t\\t\\t\\t$(this).parent(".read-more").html(readMoreHtml).append("<a href=\\\'\\\' class=\\\'show-less-link\\\'> Show Less </a>")\\r\\n\\t\\t\\t\\t})\\r\\n\\r\\n\\t\\t\\t\\t$("body").on("click", ".show-less-link", function(event){\\r\\n\\t\\t\\t\\t\\tevent.preventDefault();\\r\\n\\t\\t\\t\\t\\t$(this).parent(".read-more").html(readMoreHtml.substr(0,500)).append("<a href=\\\'\\\' class=\\\'read-more-link\\\'> Show More </a>")\\r\\n\\t\\t\\t\\t})\\r\\n\\t\\t\\t});\\r\\n\\t\\t</script>\\r\\n\\r\\n\\t</body>\\r\\n</html>\', escape=False)'
p7
sS'snapshot'
p8
(dp9
S'exception'
p10
(dp11
S'__module__'
p12
S"'gluon.rocket'"
p13
sS'__getslice__'
p14
S"<method-wrapper '__getslice__' of SocketTimeout object>"
p15
sS'__str__'
p16
S"<method-wrapper '__str__' of SocketTimeout object>"
p17
sS'__reduce__'
p18
S'<built-in method __reduce__ of SocketTimeout object>'
p19
sS'__dict__'
p20
S'{}'
p21
sS'__sizeof__'
p22
S'<built-in method __sizeof__ of SocketTimeout object>'
p23
sS'__weakref__'
p24
S'None'
p25
sS'message'
p26
S"'Socket timed out before request.'"
p27
sS'__init__'
p28
S"<method-wrapper '__init__' of SocketTimeout object>"
p29
sS'__setattr__'
p30
S"<method-wrapper '__setattr__' of SocketTimeout object>"
p31
sS'__reduce_ex__'
p32
S'<built-in method __reduce_ex__ of SocketTimeout object>'
p33
sS'__new__'
p34
S'<built-in method __new__ of type object>'
p35
sS'__format__'
p36
S'<built-in method __format__ of SocketTimeout object>'
p37
sS'__class__'
p38
S"<class 'gluon.rocket.SocketTimeout'>"
p39
sS'__doc__'
p40
S"'Exception for when a socket times out between requests.'"
p41
sS'__getitem__'
p42
S"<method-wrapper '__getitem__' of SocketTimeout object>"
p43
sS'__setstate__'
p44
S'<built-in method __setstate__ of SocketTimeout object>'
p45
sS'__getattribute__'
p46
S"<method-wrapper '__getattribute__' of SocketTimeout object>"
p47
sS'args'
p48
S"('Socket timed out before request.',)"
p49
sS'__subclasshook__'
p50
S'<built-in method __subclasshook__ of type object>'
p51
sS'__unicode__'
p52
S'<built-in method __unicode__ of SocketTimeout object>'
p53
sS'__delattr__'
p54
S"<method-wrapper '__delattr__' of SocketTimeout object>"
p55
sS'__repr__'
p56
S"<method-wrapper '__repr__' of SocketTimeout object>"
p57
sS'__hash__'
p58
S"<method-wrapper '__hash__' of SocketTimeout object>"
p59
ssS'evalue'
p60
S'Socket timed out before request.'
p61
sS'frames'
p62
(lp63
(dp64
S'file'
p65
S'C:\\Users\\Godwithus\\Desktop\\Codetrain\\Beginner\\web2py\\1. we2py setup & intro\\software\\windows\\web2py\\gluon\\rocket.py'
p66
sS'dump'
p67
(dp68
S'self'
p69
S'<WSGIWorker(Thread-76, started daemon 12608)>'
p70
sS'conn'
p71
S'<gluon.rocket.Connection object>'
p72
sS'self.run_app'
p73
S'<bound method WSGIWorker.run_app of <WSGIWorker(Thread-76, started daemon 12608)>>'
p74
ssS'lnum'
p75
I1319
sS'lines'
p76
(dp77
I1314
S'            # Enter connection serve loop'
p78
sI1315
S'            while True:'
p79
sI1316
S'                if __debug__:'
p80
sI1317
S"                    self.err_log.debug('Serving a request')"
p81
sI1318
S'                try:'
p82
sI1319
S'                    self.run_app(conn)'
p83
sI1320
S'                except:'
p84
sI1321
S'                    exc = sys.exc_info()'
p85
sI1322
S'                    handled = self._handleError(*exc)'
p86
sI1323
S'                    if handled:'
p87
ssS'call'
p88
S'(self=<WSGIWorker(Thread-76, started daemon 12608)>)'
p89
sS'func'
p90
S'run'
p91
sa(dp92
g65
S'C:\\Users\\Godwithus\\Desktop\\Codetrain\\Beginner\\web2py\\1. we2py setup & intro\\software\\windows\\web2py\\gluon\\rocket.py'
p93
sg67
(dp94
S'self'
p95
S'<WSGIWorker(Thread-76, started daemon 12608)>'
p96
sS'self.environ'
p97
S"{'HTTP_ACCEPT': 'text/html,application/xhtml+xml,application/xml;q=0.9,image/webp,image/apng,*/*;q=0.8', 'HTTP_ACCEPT_ENCODING': 'gzip, deflate, br', 'HTTP_ACCEPT_LANGUAGE': 'en-US,en;q=0.9', 'HTTP_CACHE_CONTROL': 'max-age=0', 'HTTP_CONNECTION': 'keep-alive', 'HTTP_COOKIE': 'session_id_admin=127.0.0.1-b8e86eb5-01b4-4797-89...ad=127.0.0.1-9ee37ca8-63a7-426b-8391-23dde906f985', 'HTTP_HOST': '127.0.0.1:8000', 'HTTP_REFERER': 'http://127.0.0.1:8000/Notepad/default/Add_Notes.html', 'HTTP_UPGRADE_INSECURE_REQUESTS': '1', 'HTTP_USER_AGENT': 'Mozilla/5.0 (Windows NT 10.0; Win64; x64) AppleW...L, like Gecko) Chrome/69.0.3497.100 Safari/537.36', ...}"
p98
sS'sock_file'
p99
S'<socket._fileobject object>'
p100
sS'environ'
p101
S'undefined'
p102
sS'self.build_environ'
p103
S'<bound method WSGIWorker.build_environ of <WSGIWorker(Thread-76, started daemon 12608)>>'
p104
sS'conn'
p105
S'<gluon.rocket.Connection object>'
p106
ssg75
I1812
sg76
(dp107
I1807
S'        else:'
p108
sI1808
S'            sock_file = conn.makefile(BUF_SIZE)'
p109
sI1809
S''
sI1810
S'        try:'
p110
sI1811
S'            # Read the headers and build our WSGI environment'
p111
sI1812
S'            self.environ = environ = self.build_environ(sock_file, conn)'
p112
sI1813
S''
sI1814
S'            # Handle 100 Continue'
p113
sI1815
S"            if environ.get('HTTP_EXPECT', '') == '100-continue':"
p114
sI1816
S"                res = environ['SERVER_PROTOCOL'] + ' 100 Continue\\r\\n\\r\\n'"
p115
ssg88
S'(self=<WSGIWorker(Thread-76, started daemon 12608)>, conn=<gluon.rocket.Connection object>)'
p116
sg90
S'run_app'
p117
sa(dp118
g65
S'C:\\Users\\Godwithus\\Desktop\\Codetrain\\Beginner\\web2py\\1. we2py setup & intro\\software\\windows\\web2py\\gluon\\rocket.py'
p119
sg67
(dp120
S'sock_file'
p121
S'<socket._fileobject object>'
p122
sS'self.read_request_line'
p123
S'<bound method WSGIWorker.read_request_line of <WSGIWorker(Thread-76, started daemon 12608)>>'
p124
sS'self'
p125
S'<WSGIWorker(Thread-76, started daemon 12608)>'
p126
sS'request'
p127
g102
ssg75
I1632
sg76
(dp128
I1632
S'        request = self.read_request_line(sock_file)'
p129
sI1633
S''
sI1634
S'        # Copy the Base Environment'
p130
sI1635
S'        environ = self.base_environ.copy()'
p131
sI1636
S''
sI1627
S'                                      "wsgiorg.futures": executor.futures})'
p132
sI1628
S''
sI1629
S'    def build_environ(self, sock_file, conn):'
p133
sI1630
S'        """ Build the execution environment. """'
p134
sI1631
S'        # Grab the request line'
p135
ssg88
S'(self=<WSGIWorker(Thread-76, started daemon 12608)>, sock_file=<socket._fileobject object>, conn=<gluon.rocket.Connection object>)'
p136
sg90
S'build_environ'
p137
sa(dp138
g65
S'C:\\Users\\Godwithus\\Desktop\\Codetrain\\Beginner\\web2py\\1. we2py setup & intro\\software\\windows\\web2py\\gluon\\rocket.py'
p139
sg67
(dp140
S'global SocketTimeout'
p141
S"<class 'gluon.rocket.SocketTimeout'>"
p142
ssg75
I1383
sg76
(dp143
I1378
S''
sI1379
S'                d = sock_file.readline()'
p144
sI1380
S'                if PY3K:'
p145
sI1381
S"                    d = d.decode('ISO-8859-1')"
p146
sI1382
S'        except socket.timeout:'
p147
sI1383
S"            raise SocketTimeout('Socket timed out before request.')"
p148
sI1384
S'        except TypeError:'
p149
sI1385
S'            raise SocketClosed('
p150
sI1386
S"                'SSL bug caused closure of socket.  See '"
p151
sI1387
S'                \'"https://groups.google.com/d/topic/web2py/P_Gw0JxWzCs".\')'
p152
ssg88
S'(self=<WSGIWorker(Thread-76, started daemon 12608)>, sock_file=<socket._fileobject object>)'
p153
sg90
S'read_request_line'
p154
sasS'pyver'
p155
S'Python 2.7.9: C:\\Users\\Godwithus\\Desktop\\Codetrain\\Beginner\\web2py\\1. we2py setup & intro\\software\\windows\\web2py\\web2py.exe (prefix: )'
p156
sS'etype'
p157
S"<class 'gluon.rocket.SocketTimeout'>"
p158
sS'date'
p159
S'Wed Oct 31 22:32:30 2018'
p160
sS'locals'
p161
(dp162
S'sock_file'
p163
S'<socket._fileobject object>'
p164
sS'self'
p165
S'<WSGIWorker(Thread-76, started daemon 12608)>'
p166
sssS'traceback'
p167
S'Traceback (most recent call last):\n  File "C:\\Users\\Godwithus\\Desktop\\Codetrain\\Beginner\\web2py\\1. we2py setup & intro\\software\\windows\\web2py\\gluon\\rocket.py", line 1319, in run\n    self.run_app(conn)\n  File "C:\\Users\\Godwithus\\Desktop\\Codetrain\\Beginner\\web2py\\1. we2py setup & intro\\software\\windows\\web2py\\gluon\\rocket.py", line 1812, in run_app\n    self.environ = environ = self.build_environ(sock_file, conn)\n  File "C:\\Users\\Godwithus\\Desktop\\Codetrain\\Beginner\\web2py\\1. we2py setup & intro\\software\\windows\\web2py\\gluon\\rocket.py", line 1632, in build_environ\n    request = self.read_request_line(sock_file)\n  File "C:\\Users\\Godwithus\\Desktop\\Codetrain\\Beginner\\web2py\\1. we2py setup & intro\\software\\windows\\web2py\\gluon\\rocket.py", line 1383, in read_request_line\n    raise SocketTimeout(\'Socket timed out before request.\')\nSocketTimeout: Socket timed out before request.\n'
p168
s.